target datalayout = "e-m:e-p270:32:32-p271:32:32-p272:64:64-i64:64-i128:128-f80:128-n8:16:32:64-S128"
target triple = "x86_64-pc-linux-gnu"

%class.XMMRegister = type { i32 }
%class.MachNode = type { %class.Node.base, i8, i16, ptr }
%class.Node.base = type <{ ptr, ptr, ptr, i32, i32, i32, i32, i32, i32, i32 }>
%class.roundD_regNode = type { %class.MachNode, [3 x ptr] }

@UseAVX = external global i32, align 4
@_ZL6xnoreg = internal constant %class.XMMRegister { i32 -1 }, align 4

; Function Attrs: mustprogress nounwind uwtable
define linkonce_odr hidden void @_ZN11XMMRegisterC2Eib(ptr noundef nonnull align 4 dereferenceable(4) %0, i32 noundef %1, i1 noundef zeroext %2) unnamed_addr #1 comdat align 2 {
  %4 = alloca ptr, align 8
  %5 = alloca i32, align 4
  %6 = alloca i8, align 1
  store ptr %0, ptr %4, align 8
  store i32 %1, ptr %5, align 4
  %7 = zext i1 %2 to i8
  store i8 %7, ptr %6, align 1
  %8 = load ptr, ptr %4, align 8
  %9 = getelementptr inbounds %class.XMMRegister, ptr %8, i32 0, i32 0
  %10 = load i32, ptr %5, align 4
  store i32 %10, ptr %9, align 4
  ret void
}

; Function Attrs: mustprogress nounwind uwtable
define linkonce_odr hidden i32 @_Z14as_XMMRegisteri(i32 noundef %0) #1 comdat {
  %2 = alloca %class.XMMRegister, align 4
  %3 = alloca i32, align 4
  store i32 %0, ptr %3, align 4
  %4 = load i32, ptr %3, align 4
  %5 = icmp sle i32 0, %4
  br i1 %5, label %6, label %11

6:                                                ; preds = %1
  %7 = load i32, ptr %3, align 4
  %8 = icmp slt i32 %7, 32
  br i1 %8, label %9, label %11

9:                                                ; preds = %6
  %10 = load i32, ptr %3, align 4
  call void @_ZN11XMMRegisterC2Eib(ptr noundef nonnull align 4 dereferenceable(4) %2, i32 noundef %10, i1 noundef zeroext false)
  br label %12

11:                                               ; preds = %6, %1
  call void @llvm.memcpy.p0.p0.i64(ptr align 4 %2, ptr align 4 @_ZL6xnoreg, i64 4, i1 false)
  br label %12

12:                                               ; preds = %11, %9
  %13 = getelementptr inbounds %class.XMMRegister, ptr %2, i32 0, i32 0
  %14 = load i32, ptr %13, align 4
  ret i32 %14
}

; Function Attrs: mustprogress nounwind uwtable
define linkonce_odr hidden void @_ZN14MacroAssembler7roundsdE11XMMRegisterS0_i(ptr noundef nonnull align 8 dereferenceable(40) %0, i32 %1, i32 %2, i32 noundef %3) #1 comdat align 2 {
  %5 = alloca %class.XMMRegister, align 4
  %6 = alloca %class.XMMRegister, align 4
  %7 = alloca ptr, align 8
  %8 = alloca i32, align 4
  %9 = alloca %class.XMMRegister, align 4
  %10 = alloca %class.XMMRegister, align 4
  %11 = getelementptr inbounds %class.XMMRegister, ptr %5, i32 0, i32 0
  store i32 %1, ptr %11, align 4
  %12 = getelementptr inbounds %class.XMMRegister, ptr %6, i32 0, i32 0
  store i32 %2, ptr %12, align 4
  store ptr %0, ptr %7, align 8
  store i32 %3, ptr %8, align 4
  %13 = load ptr, ptr %7, align 8
  call void @llvm.memcpy.p0.p0.i64(ptr align 4 %9, ptr align 4 %5, i64 4, i1 false)
  call void @llvm.memcpy.p0.p0.i64(ptr align 4 %10, ptr align 4 %6, i64 4, i1 false)
  %14 = load i32, ptr %8, align 4
  %15 = getelementptr inbounds %class.XMMRegister, ptr %9, i32 0, i32 0
  %16 = load i32, ptr %15, align 4
  %17 = getelementptr inbounds %class.XMMRegister, ptr %10, i32 0, i32 0
  %18 = load i32, ptr %17, align 4
  call void @_ZN9Assembler7roundsdE11XMMRegisterS0_i(ptr noundef nonnull align 8 dereferenceable(40) %13, i32 %16, i32 %18, i32 noundef %14)
  ret void
}

; Function Attrs: mustprogress nounwind uwtable
define linkonce_odr hidden noundef i32 @_ZNK11XMMRegisterneES_(ptr noundef nonnull align 4 dereferenceable(4) %0, i32 %1) #1 comdat align 2 {
  %3 = alloca %class.XMMRegister, align 4
  %4 = alloca ptr, align 8
  %5 = getelementptr inbounds %class.XMMRegister, ptr %3, i32 0, i32 0
  store i32 %1, ptr %5, align 4
  store ptr %0, ptr %4, align 8
  %6 = load ptr, ptr %4, align 8
  %7 = getelementptr inbounds %class.XMMRegister, ptr %6, i32 0, i32 0
  %8 = load i32, ptr %7, align 4
  %9 = getelementptr inbounds %class.XMMRegister, ptr %3, i32 0, i32 0
  %10 = load i32, ptr %9, align 4
  %11 = icmp ne i32 %8, %10
  %12 = zext i1 %11 to i32
  ret i32 %12
}

; Function Attrs: mustprogress nounwind uwtable
define linkonce_odr hidden i32 @_ZNK8MachOper14as_XMMRegisterEP13PhaseRegAllocPK4Nodei(ptr noundef nonnull align 8 dereferenceable(8) %0, ptr noundef %1, ptr noundef %2, i32 noundef %3) #1 comdat align 2 {
  %5 = alloca %class.XMMRegister, align 4
  %6 = alloca ptr, align 8
  %7 = alloca ptr, align 8
  %8 = alloca ptr, align 8
  %9 = alloca i32, align 4
  store ptr %0, ptr %6, align 8
  store ptr %1, ptr %7, align 8
  store ptr %2, ptr %8, align 8
  store i32 %3, ptr %9, align 4
  %10 = load ptr, ptr %6, align 8
  %11 = load ptr, ptr %7, align 8
  %12 = load ptr, ptr %8, align 8
  %13 = load i32, ptr %9, align 4
  %14 = load ptr, ptr %10, align 8
  %15 = getelementptr inbounds ptr, ptr %14, i64 5
  %16 = load ptr, ptr %15, align 8
  %17 = call noundef i32 %16(ptr noundef nonnull align 8 dereferenceable(8) %10, ptr noundef %11, ptr noundef %12, i32 noundef %13)
  %18 = call i32 @_Z14as_XMMRegisteri(i32 noundef %17)
  %19 = getelementptr inbounds %class.XMMRegister, ptr %5, i32 0, i32 0
  store i32 %18, ptr %19, align 4
  %20 = getelementptr inbounds %class.XMMRegister, ptr %5, i32 0, i32 0
  %21 = load i32, ptr %20, align 4
  ret i32 %21
}

; Function Attrs: mustprogress nounwind uwtable
define linkonce_odr hidden i32 @_ZNK8MachOper14as_XMMRegisterEP13PhaseRegAllocPK4Node(ptr noundef nonnull align 8 dereferenceable(8) %0, ptr noundef %1, ptr noundef %2) #1 comdat align 2 {
  %4 = alloca %class.XMMRegister, align 4
  %5 = alloca ptr, align 8
  %6 = alloca ptr, align 8
  %7 = alloca ptr, align 8
  store ptr %0, ptr %5, align 8
  store ptr %1, ptr %6, align 8
  store ptr %2, ptr %7, align 8
  %8 = load ptr, ptr %5, align 8
  %9 = load ptr, ptr %6, align 8
  %10 = load ptr, ptr %7, align 8
  %11 = load ptr, ptr %8, align 8
  %12 = getelementptr inbounds ptr, ptr %11, i64 4
  %13 = load ptr, ptr %12, align 8
  %14 = call noundef i32 %13(ptr noundef nonnull align 8 dereferenceable(8) %8, ptr noundef %9, ptr noundef %10)
  %15 = call i32 @_Z14as_XMMRegisteri(i32 noundef %14)
  %16 = getelementptr inbounds %class.XMMRegister, ptr %4, i32 0, i32 0
  store i32 %15, ptr %16, align 4
  %17 = getelementptr inbounds %class.XMMRegister, ptr %4, i32 0, i32 0
  %18 = load i32, ptr %17, align 4
  ret i32 %18
}

; Function Attrs: mustprogress nounwind uwtable
define linkonce_odr hidden noundef ptr @_ZNK14roundD_regNode10opnd_arrayEj(ptr noundef nonnull align 8 dereferenceable(88) %0, i32 noundef %1) #1 comdat align 2 {
  %3 = alloca ptr, align 8
  %4 = alloca i32, align 4
  store ptr %0, ptr %3, align 8
  store i32 %1, ptr %4, align 4
  %5 = load ptr, ptr %3, align 8
  %6 = getelementptr inbounds %class.roundD_regNode, ptr %5, i32 0, i32 1
  %7 = load i32, ptr %4, align 4
  %8 = zext i32 %7 to i64
  %9 = getelementptr inbounds [3 x ptr], ptr %6, i64 0, i64 %8
  %10 = load ptr, ptr %9, align 8
  ret ptr %10
}

; Function Attrs: mustprogress nounwind uwtable
define hidden void @_ZNK14roundD_regNode4emitEP17C2_MacroAssemblerP13PhaseRegAlloc(ptr noundef nonnull align 8 dereferenceable(88) %0, ptr noundef %1, ptr noundef %2) unnamed_addr #1 align 2 {
  %4 = alloca ptr, align 8
  %5 = alloca ptr, align 8
  %6 = alloca ptr, align 8
  %7 = alloca i32, align 4
  %8 = alloca i32, align 4
  %9 = alloca i32, align 4
  %10 = alloca %class.XMMRegister, align 4
  %11 = alloca %class.XMMRegister, align 4
  %12 = alloca %class.XMMRegister, align 4
  %13 = alloca %class.XMMRegister, align 4
  %14 = alloca %class.XMMRegister, align 4
  %15 = alloca %class.XMMRegister, align 4
  store ptr %0, ptr %4, align 8
  store ptr %1, ptr %5, align 8
  store ptr %2, ptr %6, align 8
  %16 = load ptr, ptr %4, align 8
  store i32 1, ptr %7, align 4
  store i32 1, ptr %8, align 4
  %17 = load i32, ptr %8, align 4
  %18 = call noundef ptr @_ZNK14roundD_regNode10opnd_arrayEj(ptr noundef nonnull align 8 dereferenceable(88) %16, i32 noundef 1)
  %19 = load ptr, ptr %18, align 8
  %20 = getelementptr inbounds ptr, ptr %19, i64 1
  %21 = load ptr, ptr %20, align 8
  %22 = call noundef i32 %21(ptr noundef nonnull align 8 dereferenceable(8) %18)
  %23 = add i32 %17, %22
  store i32 %23, ptr %9, align 4
  %24 = load i32, ptr @UseAVX, align 4
  %25 = icmp eq i32 %24, 0
  br i1 %25, label %26, label %40

26:                                               ; preds = %3
  %27 = call noundef ptr @_ZNK14roundD_regNode10opnd_arrayEj(ptr noundef nonnull align 8 dereferenceable(88) %16, i32 noundef 0)
  %28 = load ptr, ptr %6, align 8
  %29 = call i32 @_ZNK8MachOper14as_XMMRegisterEP13PhaseRegAllocPK4Node(ptr noundef nonnull align 8 dereferenceable(8) %27, ptr noundef %28, ptr noundef %16)
  %30 = getelementptr inbounds %class.XMMRegister, ptr %10, i32 0, i32 0
  store i32 %29, ptr %30, align 4
  %31 = call noundef ptr @_ZNK14roundD_regNode10opnd_arrayEj(ptr noundef nonnull align 8 dereferenceable(88) %16, i32 noundef 1)
  %32 = load ptr, ptr %6, align 8
  %33 = load i32, ptr %8, align 4
  %34 = call i32 @_ZNK8MachOper14as_XMMRegisterEP13PhaseRegAllocPK4Nodei(ptr noundef nonnull align 8 dereferenceable(8) %31, ptr noundef %32, ptr noundef %16, i32 noundef %33)
  %35 = getelementptr inbounds %class.XMMRegister, ptr %11, i32 0, i32 0
  store i32 %34, ptr %35, align 4
  %36 = getelementptr inbounds %class.XMMRegister, ptr %11, i32 0, i32 0
  %37 = load i32, ptr %36, align 4
  %38 = call noundef i32 @_ZNK11XMMRegisterneES_(ptr noundef nonnull align 4 dereferenceable(4) %10, i32 %37)
  %39 = icmp ne i32 %38, 0
  br label %40

40:                                               ; preds = %26, %3
  %41 = phi i1 [ false, %3 ], [ %39, %26 ]
  br i1 %41, label %42, label %56

42:                                               ; preds = %40
  %43 = load ptr, ptr %5, align 8
  %44 = call noundef ptr @_ZNK14roundD_regNode10opnd_arrayEj(ptr noundef nonnull align 8 dereferenceable(88) %16, i32 noundef 0)
  %45 = load ptr, ptr %6, align 8
  %46 = call i32 @_ZNK8MachOper14as_XMMRegisterEP13PhaseRegAllocPK4Node(ptr noundef nonnull align 8 dereferenceable(8) %44, ptr noundef %45, ptr noundef %16)
  %47 = getelementptr inbounds %class.XMMRegister, ptr %12, i32 0, i32 0
  store i32 %46, ptr %47, align 4
  %48 = call noundef ptr @_ZNK14roundD_regNode10opnd_arrayEj(ptr noundef nonnull align 8 dereferenceable(88) %16, i32 noundef 0)
  %49 = load ptr, ptr %6, align 8
  %50 = call i32 @_ZNK8MachOper14as_XMMRegisterEP13PhaseRegAllocPK4Node(ptr noundef nonnull align 8 dereferenceable(8) %48, ptr noundef %49, ptr noundef %16)
  %51 = getelementptr inbounds %class.XMMRegister, ptr %13, i32 0, i32 0
  store i32 %50, ptr %51, align 4
  %52 = getelementptr inbounds %class.XMMRegister, ptr %12, i32 0, i32 0
  %53 = load i32, ptr %52, align 4
  %54 = getelementptr inbounds %class.XMMRegister, ptr %13, i32 0, i32 0
  %55 = load i32, ptr %54, align 4
  call void @_ZN9Assembler4pxorE11XMMRegisterS0_(ptr noundef nonnull align 8 dereferenceable(40) %43, i32 %53, i32 %55)
  br label %56

56:                                               ; preds = %42, %40
  %57 = load ptr, ptr %5, align 8
  %58 = call noundef ptr @_ZNK14roundD_regNode10opnd_arrayEj(ptr noundef nonnull align 8 dereferenceable(88) %16, i32 noundef 0)
  %59 = load ptr, ptr %6, align 8
  %60 = call i32 @_ZNK8MachOper14as_XMMRegisterEP13PhaseRegAllocPK4Node(ptr noundef nonnull align 8 dereferenceable(8) %58, ptr noundef %59, ptr noundef %16)
  %61 = getelementptr inbounds %class.XMMRegister, ptr %14, i32 0, i32 0
  store i32 %60, ptr %61, align 4
  %62 = call noundef ptr @_ZNK14roundD_regNode10opnd_arrayEj(ptr noundef nonnull align 8 dereferenceable(88) %16, i32 noundef 1)
  %63 = load ptr, ptr %6, align 8
  %64 = load i32, ptr %8, align 4
  %65 = call i32 @_ZNK8MachOper14as_XMMRegisterEP13PhaseRegAllocPK4Nodei(ptr noundef nonnull align 8 dereferenceable(8) %62, ptr noundef %63, ptr noundef %16, i32 noundef %64)
  %66 = getelementptr inbounds %class.XMMRegister, ptr %15, i32 0, i32 0
  store i32 %65, ptr %66, align 4
  %67 = call noundef ptr @_ZNK14roundD_regNode10opnd_arrayEj(ptr noundef nonnull align 8 dereferenceable(88) %16, i32 noundef 2)
  %68 = load ptr, ptr %67, align 8
  %69 = getelementptr inbounds ptr, ptr %68, i64 6
  %70 = load ptr, ptr %69, align 8
  %71 = call noundef i64 %70(ptr noundef nonnull align 8 dereferenceable(8) %67)
  %72 = trunc i64 %71 to i32
  %73 = getelementptr inbounds %class.XMMRegister, ptr %14, i32 0, i32 0
  %74 = load i32, ptr %73, align 4
  %75 = getelementptr inbounds %class.XMMRegister, ptr %15, i32 0, i32 0
  %76 = load i32, ptr %75, align 4
  call void @_ZN14MacroAssembler7roundsdE11XMMRegisterS0_i(ptr noundef nonnull align 8 dereferenceable(40) %57, i32 %74, i32 %76, i32 noundef %72)
  ret void
}