; Function Attrs: mustprogress nounwind uwtable
define hidden void @_ZNK14roundD_regNode4emitEP17C2_MacroAssemblerP13PhaseRegAlloc(ptr noundef nonnull align 8 dereferenceable(88) %0, ptr noundef %1, ptr noundef %2) unnamed_addr #3 align 2 {
  %4 = getelementptr inbounds i8, ptr %0, i64 64
  %5 = getelementptr inbounds i8, ptr %0, i64 72
  %6 = load ptr, ptr %5, align 8
  %7 = load ptr, ptr %6, align 8
  %8 = getelementptr inbounds i8, ptr %7, i64 8
  %9 = load ptr, ptr %8, align 8
  %10 = tail call noundef i32 %9(ptr noundef nonnull align 8 dereferenceable(8) %6) #23
  %11 = load i32, ptr @UseAVX, align 4
  %12 = icmp eq i32 %11, 0
  br i1 %12, label %13, label %.critedge

13:                                               ; preds = %3
  %14 = load ptr, ptr %4, align 8
  %15 = load ptr, ptr %14, align 8
  %16 = getelementptr inbounds i8, ptr %15, i64 32
  %17 = load ptr, ptr %16, align 8
  %18 = tail call noundef i32 %17(ptr noundef nonnull align 8 dereferenceable(8) %14, ptr noundef %2, ptr noundef nonnull %0) #23
  %or.cond.i.i = icmp ult i32 %18, 32
  %spec.select.i.i = select i1 %or.cond.i.i, i32 %18, i32 -1
  %19 = load ptr, ptr %5, align 8
  %20 = load ptr, ptr %19, align 8
  %21 = getelementptr inbounds i8, ptr %20, i64 40
  %22 = load ptr, ptr %21, align 8
  %23 = tail call noundef i32 %22(ptr noundef nonnull align 8 dereferenceable(8) %19, ptr noundef %2, ptr noundef nonnull %0, i32 noundef 1) #23
  %or.cond.i.i15 = icmp ult i32 %23, 32
  %spec.select.i.i16 = select i1 %or.cond.i.i15, i32 %23, i32 -1
  %.not25 = icmp eq i32 %spec.select.i.i, %spec.select.i.i16
  br i1 %.not25, label %.critedge, label %24

24:                                               ; preds = %13
  %25 = load ptr, ptr %4, align 8
  %26 = load ptr, ptr %25, align 8
  %27 = getelementptr inbounds i8, ptr %26, i64 32
  %28 = load ptr, ptr %27, align 8
  %29 = tail call noundef i32 %28(ptr noundef nonnull align 8 dereferenceable(8) %25, ptr noundef %2, ptr noundef nonnull %0) #23
  %or.cond.i.i17 = icmp ult i32 %29, 32
  %spec.select.i.i18 = select i1 %or.cond.i.i17, i32 %29, i32 -1
  %30 = load ptr, ptr %4, align 8
  %31 = load ptr, ptr %30, align 8
  %32 = getelementptr inbounds i8, ptr %31, i64 32
  %33 = load ptr, ptr %32, align 8
  %34 = tail call noundef i32 %33(ptr noundef nonnull align 8 dereferenceable(8) %30, ptr noundef %2, ptr noundef nonnull %0) #23
  %or.cond.i.i19 = icmp ult i32 %34, 32
  %spec.select.i.i20 = select i1 %or.cond.i.i19, i32 %34, i32 -1
  tail call void @_ZN9Assembler4pxorE11XMMRegisterS0_(ptr noundef nonnull align 8 dereferenceable(40) %1, i32 %spec.select.i.i18, i32 %spec.select.i.i20) #23
  br label %.critedge

.critedge:                                        ; preds = %3, %24, %13
  %35 = load ptr, ptr %4, align 8
  %36 = load ptr, ptr %35, align 8
  %37 = getelementptr inbounds i8, ptr %36, i64 32
  %38 = load ptr, ptr %37, align 8
  %39 = tail call noundef i32 %38(ptr noundef nonnull align 8 dereferenceable(8) %35, ptr noundef %2, ptr noundef nonnull %0) #23
  %or.cond.i.i21 = icmp ult i32 %39, 32
  %spec.select.i.i22 = select i1 %or.cond.i.i21, i32 %39, i32 -1
  %40 = load ptr, ptr %5, align 8
  %41 = load ptr, ptr %40, align 8
  %42 = getelementptr inbounds i8, ptr %41, i64 40
  %43 = load ptr, ptr %42, align 8
  %44 = tail call noundef i32 %43(ptr noundef nonnull align 8 dereferenceable(8) %40, ptr noundef %2, ptr noundef nonnull %0, i32 noundef 1) #23
  %or.cond.i.i23 = icmp ult i32 %44, 32
  %spec.select.i.i24 = select i1 %or.cond.i.i23, i32 %44, i32 -1
  %45 = getelementptr inbounds i8, ptr %0, i64 80
  %46 = load ptr, ptr %45, align 8
  %47 = load ptr, ptr %46, align 8
  %48 = getelementptr inbounds i8, ptr %47, i64 48
  %49 = load ptr, ptr %48, align 8
  %50 = tail call noundef i64 %49(ptr noundef nonnull align 8 dereferenceable(8) %46) #23
  %51 = trunc i64 %50 to i32
  tail call void @_ZN9Assembler7roundsdE11XMMRegisterS0_i(ptr noundef nonnull align 8 dereferenceable(40) %1, i32 %spec.select.i.i22, i32 %spec.select.i.i24, i32 noundef %51) #23
  ret void
}